
 Start  Stop   Length Name               Class

 00000H 010FEH 010FFH PROGRAM            CODE
 01100H 012FFH 00200H rolfazil           CODE
 01300H 01899H 0059AH vgaliza3           CODE
 018A0H 01EBEH 0061FH Crt                CODE
 01EC0H 033C5H 01506H System             CODE
 033D0H 04317H 00F48H DATA               DATA
 04320H 0831FH 04000H STACK              STACK
 08320H 08320H 00000H HEAP               HEAP

  Address         Publics by Value

 0000:05D1       slidewc3
 0000:0D65       slidewc4
 0000:0F3D       initpats
 0000:0FA6       @
 0110:0000       slidewu
 0110:01EE       @
 0130:0000       vgamode
 0130:0121       clear
 0130:0167       aload
 0130:01EF       uncompress
 0130:02EF       loadchar
 0130:0582       @
 018A:000D       @
 018A:0177       TextMode
 018A:018C       Window
 018A:01CC       ClrScr
 018A:01E6       ClrEol
 018A:01FA       InsLine
 018A:01FF       DelLine
 018A:021F       GotoXY
 018A:024B       WhereX
 018A:0257       WhereY
 018A:0263       TextColor
 018A:027D       TextBackground
 018A:0295       LowVideo
 018A:029B       HighVideo
 018A:02A1       NormVideo
 018A:02A8       Delay
 018A:02D4       Sound
 018A:0301       NoSound
 018A:0308       KeyPressed
 018A:031A       ReadKey
 018A:033C       AssignCrt
 033D:0002       OvrCodeList
 033D:0004       OvrHeapSize
 033D:0006       OvrDebugPtr
 033D:000A       OvrHeapOrg
 033D:000C       OvrHeapPtr
 033D:000E       OvrHeapEnd
 033D:0010       OvrLoadList
 033D:0012       OvrDosHandle
 033D:0014       OvrEmsHandle
 033D:0016       HeapOrg
 033D:001A       HeapPtr
 033D:001E       HeapEnd
 033D:0022       FreeList
 033D:0026       FreeZero
 033D:002A       HeapError
 033D:002E       ExitProc
 033D:0032       ExitCode
 033D:0034       ErrorAddr
 033D:0038       PrefixSeg
 033D:003A       StackLimit
 033D:003C       InOutRes
 033D:003E       RandSeed
 033D:0042       SelectorInc
 033D:0044       Seg0040
 033D:0046       SegA000
 033D:0048       SegB000
 033D:004A       SegB800
 033D:004C       Test8086
 033D:004D       Test8087
 033D:004E       FileMode
 033D:0050       buncom
 033D:0054       bcom
 033D:0058       com
 033D:005C       uncom
 033D:0060       compresssize
 033D:0062       upos
 033D:0064       cpos
 033D:0066       showcompleted
 033D:0068       every
 033D:006A       uncomcount
 033D:006C       indexpat
 033D:02EC       countpat
 033D:056C       nopat
 033D:07EC       maxindexf
 033D:07ED       maxindexm
 033D:07EE       maxindex
 033D:07EF       countest
 033D:07F0       indexest
 033D:07F1       count
 033D:07F2       maxcount
 033D:07F3       ncount
 033D:07F4       index
 033D:07F6       lupos
 033D:07F8       abc
 033D:07FA       ndexs
 033D:07FC       abcpos
 033D:0800       lastindex
 033D:0802       abcofs
 033D:0804       maxabc
 033D:0806       startabc
 033D:0808       headabc
 033D:080A       abcseg
 033D:080C       labas
 033D:080E       abcbuf
 033D:0810       uposindex
 033D:0812       startheadofs
 033D:0814       countlimit
 033D:0816       startofs
 033D:0818       startmaxofs
 033D:081A       wcountest
 033D:081C       wcount
 033D:081E       windexest
 033D:0820       windex
 033D:0822       wmaxindex
 033D:0824       wmaxindexf
 033D:0826       wmaxindexm
 033D:0828       wncount
 033D:082A       wmaxcount
 033D:082C       myword
 033D:082E       bufinseg
 033D:0830       bufinofs
 033D:0832       p
 033D:0836       ch
 033D:0838       buncom
 033D:083C       bcom
 033D:0840       com
 033D:0844       uncom
 033D:0848       compresssize
 033D:084A       upos
 033D:084C       cpos
 033D:084E       showcompleted
 033D:0850       every
 033D:0866       fillmethod
 033D:0867       cc
 033D:0868       a
 033D:086A       b
 033D:086C       c
 033D:086E       cp
 033D:0870       gseg
 033D:0872       gseg2
 033D:0874       pseg
 033D:0876       syaofs
 033D:0878       sydofs
 033D:087A       pseghi1
 033D:087C       pseghi2
 033D:087E       gseghi1
 033D:0880       gseghi2
 033D:0882       gofs
 033D:0884       gofs2
 033D:0886       pofs
 033D:0888       winx1
 033D:088A       winx2
 033D:088C       winy1
 033D:088E       winy2
 033D:0890       towinx1
 033D:0892       towinx2
 033D:0894       towiny1
 033D:0896       towiny2
 033D:0898       minx
 033D:089A       miny
 033D:089C       maxx
 033D:089E       maxy
 033D:08A0       maxsize
 033D:08A2       myfilesize
 033D:08A4       gmis
 033D:08A5       yeymode
 033D:08A6       framemode
 033D:08A8       fc1
 033D:08A9       fc2
 033D:08AA       fc3
 033D:08AC       charw
 033D:08AE       charh
 033D:08B0       textx
 033D:08B2       texty
 033D:08B4       charinstalled
 033D:08B6       mychar
 033D:0CD2       CheckBreak
 033D:0CD3       CheckEOF
 033D:0CD4       DirectVideo
 033D:0CD5       CheckSnow
 033D:0CD6       LastMode
 033D:0CD8       TextAttr
 033D:0CDA       WindMin
 033D:0CDC       WindMax
 033D:0CE6       Input
 033D:0DE6       Output
 033D:0EE6       SaveInt00
 033D:0EEA       SaveInt02
 033D:0EEE       SaveInt1B
 033D:0EF2       SaveInt21
 033D:0EF6       SaveInt23
 033D:0EFA       SaveInt24
 033D:0EFE       SaveInt34
 033D:0F02       SaveInt35
 033D:0F06       SaveInt36
 033D:0F0A       SaveInt37
 033D:0F0E       SaveInt38
 033D:0F12       SaveInt39
 033D:0F16       SaveInt3A
 033D:0F1A       SaveInt3B
 033D:0F1E       SaveInt3C
 033D:0F22       SaveInt3D
 033D:0F26       SaveInt3E
 033D:0F2A       SaveInt3F
 033D:0F2E       SaveInt75

Line numbers for PROGRAM(ADAP9.PAS) segment PROGRAM

   385 0000:0000   386 0000:000E   387 0000:0014   388 0000:0022
   389 0000:0032   390 0000:003C   391 0000:0054   392 0000:006E
   393 0000:0093   395 0000:009D   396 0000:00AF   397 0000:00F1
   398 0000:011A   399 0000:012B   400 0000:013C   401 0000:0146
   402 0000:0150   403 0000:015A   404 0000:0194   407 0000:0198
   408 0000:01A2   409 0000:01B3   412 0000:01B7   413 0000:01C5
   414 0000:01CA   415 0000:01DE   416 0000:01F2   417 0000:0206
   418 0000:020F   419 0000:0218   420 0000:0228   421 0000:0241
   422 0000:024F   423 0000:025B   424 0000:026C   426 0000:0285
   427 0000:0294   428 0000:029F   429 0000:02B0   430 0000:02C1
   431 0000:02C6   432 0000:02CB   433 0000:02FE   434 0000:0304
   436 0000:030D   437 0000:0313   438 0000:0319   440 0000:0329
   441 0000:0334   444 0000:0338   445 0000:0342   446 0000:0354
   447 0000:035A   449 0000:0371   450 0000:03B3   451 0000:03D0
   453 0000:03DA   454 0000:03DF   455 0000:0427   456 0000:042D
   458 0000:0436   459 0000:043C   460 0000:0442   462 0000:044D
   463 0000:0451   465 0000:0476   468 0000:047A   470 0000:0484
   471 0000:048E   473 0000:04A6   474 0000:04BD   475 0000:04C1
   476 0000:04EA   477 0000:04F4   480 0000:04F8   481 0000:0502
   482 0000:0514   483 0000:0525   484 0000:055E   485 0000:056F
   486 0000:05A2   487 0000:05CD   489 0000:05D1   490 0000:05E0
   491 0000:05E5   492 0000:05F1   493 0000:05F4   494 0000:05FB
   495 0000:0602   496 0000:0609   497 0000:0610   498 0000:061D
   499 0000:062F   500 0000:0648   501 0000:0661   502 0000:0666
   503 0000:066C   504 0000:0670   505 0000:0676   506 0000:067B
   507 0000:067F   508 0000:0683   510 0000:0689   511 0000:068D
   513 0000:0697   515 0000:069E   516 0000:06A2   518 0000:06A7
   519 0000:06BF   520 0000:06D7   521 0000:06EF   522 0000:06FE
   523 0000:0702   524 0000:0711   525 0000:0715   526 0000:071B
   527 0000:0746   528 0000:074A   530 0000:074C   531 0000:0752
   532 0000:0756   533 0000:075A   534 0000:075E   536 0000:0765
   537 0000:0769   538 0000:076E   541 0000:0774   542 0000:077F
   543 0000:078A   544 0000:0794   545 0000:079B   546 0000:07A1
   547 0000:07A5   560 0000:07A9   561 0000:07B7   562 0000:07BD
   563 0000:07CB   564 0000:07DB   565 0000:07E5   566 0000:07FD
   567 0000:0817   568 0000:083C   570 0000:0846   571 0000:0858
   572 0000:089A   573 0000:08C3   574 0000:08D4   575 0000:08E5
   576 0000:08EF   577 0000:08F9   578 0000:0903   579 0000:093D
   582 0000:0941   583 0000:094B   584 0000:095C   587 0000:0960
   588 0000:096A   589 0000:0976   590 0000:097B   591 0000:0980
   592 0000:0994   593 0000:09A8   594 0000:09BC   595 0000:09C5
   596 0000:09CE   597 0000:09DE   598 0000:09F7   599 0000:0A05
   600 0000:0A11   602 0000:0A22   603 0000:0A23   604 0000:0A24
   605 0000:0A28   606 0000:0A2C   607 0000:0A30   608 0000:0A34
   610 0000:0A36   611 0000:0A39   612 0000:0A3A   613 0000:0A3E
   615 0000:0A41   616 0000:0A44   618 0000:0A45   619 0000:0A46
   620 0000:0A47   621 0000:0A4B   622 0000:0A4C   623 0000:0A4D
   625 0000:0A4E   626 0000:0A52   627 0000:0A54   628 0000:0A55
   629 0000:0A59   631 0000:0A5B   632 0000:0A5F   633 0000:0A61
   635 0000:0A65   636 0000:0A69   638 0000:0A6A   639 0000:0A6C
   640 0000:0A6D   641 0000:0A6F   642 0000:0A70   643 0000:0A72
   644 0000:0A73   645 0000:0A75   646 0000:0A76   648 0000:0A77
   649 0000:0A7B   650 0000:0A7D   651 0000:0A7E   652 0000:0A80
   654 0000:0A82   655 0000:0A86   656 0000:0A89   657 0000:0A8C
   658 0000:0A8E   659 0000:0A8F   661 0000:0A91   663 0000:0A92
   664 0000:0A96   665 0000:0A97   666 0000:0A9B   667 0000:0A9F
   668 0000:0AA2   669 0000:0AA3   671 0000:0AA4   672 0000:0AAF
   690 0000:0AC8   693 0000:0ACC   694 0000:0AD6   695 0000:0AE8
   696 0000:0AEE   698 0000:0B05   699 0000:0B47   700 0000:0B64
   702 0000:0B6E   703 0000:0B73   704 0000:0BBB   705 0000:0BC1
   707 0000:0BCA   708 0000:0BD0   709 0000:0BD6   711 0000:0BE1
   712 0000:0BE5   714 0000:0C0A   717 0000:0C0E   719 0000:0C18
   720 0000:0C22   722 0000:0C3A   723 0000:0C51   724 0000:0C55
   725 0000:0C7E   726 0000:0C88   729 0000:0C8C   730 0000:0C96
   731 0000:0CA8   732 0000:0CB9   733 0000:0CF2   734 0000:0D03
   735 0000:0D36   736 0000:0D61   738 0000:0D65   739 0000:0D74
   740 0000:0D79   741 0000:0D85   742 0000:0D88   743 0000:0D8F
   744 0000:0D96   745 0000:0D9D   746 0000:0DA4   747 0000:0DB1
   748 0000:0DC3   749 0000:0DDC   750 0000:0DF5   751 0000:0DFA
   752 0000:0E00   753 0000:0E04   754 0000:0E0A   755 0000:0E0F
   756 0000:0E13   757 0000:0E17   759 0000:0E1D   760 0000:0E21
   762 0000:0E2B   764 0000:0E32   765 0000:0E36   767 0000:0E3B
   768 0000:0E53   769 0000:0E6B   770 0000:0E83   771 0000:0E92
   772 0000:0E96   773 0000:0EA5   774 0000:0EA9   775 0000:0EAF
   776 0000:0EDA   777 0000:0EDE   779 0000:0EE0   780 0000:0EE6
   781 0000:0EEA   782 0000:0EEE   783 0000:0EF2   785 0000:0EF9
   786 0000:0EFD   787 0000:0F02   790 0000:0F08   791 0000:0F13
   792 0000:0F1E   793 0000:0F28   794 0000:0F2F   795 0000:0F35
   796 0000:0F39   802 0000:0F3D   803 0000:0F4B   805 0000:0F55
   806 0000:0F60   807 0000:0F6B   808 0000:0F76   809 0000:0F7D
   841 0000:0FA6   842 0000:0FC9   843 0000:0FCE   844 0000:0FD5
   845 0000:0FE4   848 0000:0FF4   849 0000:0FF9   850 0000:0FFE
   857 0000:1011   859 0000:1019   860 0000:102F   861 0000:1045
   862 0000:104D   863 0000:1063   864 0000:1068   865 0000:107B
   866 0000:1083   867 0000:1099   868 0000:109C   869 0000:10B2
   871 0000:10C8   872 0000:10CD   873 0000:10D2   874 0000:10E5
   875 0000:10ED   876 0000:10F7

Line numbers for rolfazil(ROLFAZIL.PAS) segment rolfazil

   609 0110:0000   610 0110:000E   612 0110:001A   613 0110:0021
   614 0110:0037   615 0110:0041   616 0110:0047   617 0110:004D
   619 0110:005F   621 0110:0063   622 0110:0073   623 0110:0077
   625 0110:007F   626 0110:0088   627 0110:0094   628 0110:00B1
   629 0110:00BB   630 0110:00C5   632 0110:00C7   633 0110:00E1
   634 0110:00E5   635 0110:00F6   636 0110:0100   638 0110:0118
   639 0110:0133   640 0110:0137   642 0110:013F   643 0110:0150
   645 0110:015B   646 0110:0180   647 0110:0185   648 0110:0196
   649 0110:01A0   651 0110:01B8   652 0110:01D3   653 0110:01D7
   655 0110:01DF   657 0110:01EA   997 0110:01EE   998 0110:01F8
   999 0110:01FE

Line numbers for vgaliza3(\ANGELO\NEWEST\ACE\VGALIZA3.PAS) segment vgaliza3

   120 0130:0000   121 0130:000A   122 0130:0010   123 0130:0013
   124 0130:0017   125 0130:001C   126 0130:0021   127 0130:0027
   128 0130:002D   129 0130:002F   130 0130:0037   131 0130:003C
   132 0130:0041   133 0130:0047   134 0130:004D   135 0130:004F
   136 0130:0053   137 0130:0058   138 0130:005D   139 0130:0063
   142 0130:0069   143 0130:006E   144 0130:0073   145 0130:0079
   148 0130:007F   149 0130:0083   150 0130:0085   151 0130:0089
   152 0130:008B   153 0130:008F   154 0130:0091   155 0130:0095
   156 0130:0097   157 0130:009B   158 0130:009D   159 0130:00A1
   160 0130:00A5   161 0130:00A8   163 0130:00AA   164 0130:00AC
   166 0130:00AE   167 0130:00B0   169 0130:00B2   171 0130:00B5
   172 0130:00B7   173 0130:00B9   175 0130:00BB   176 0130:00BC
   177 0130:00BF   178 0130:00C1   179 0130:00C4   180 0130:00C6
   181 0130:00C7   182 0130:00C8   183 0130:00C9   184 0130:00CB
   185 0130:00CD   186 0130:00CE   187 0130:00D1   188 0130:00D3
   189 0130:00D4   190 0130:00D5   191 0130:00D6   192 0130:00D8
   193 0130:00D9   195 0130:00DA   196 0130:00DC   197 0130:00DD
   198 0130:00DE   199 0130:00DF   200 0130:00E1   203 0130:00E2
   204 0130:00E4   205 0130:00E6   206 0130:00E9   208 0130:00EA
   209 0130:00ED   210 0130:00EF   211 0130:00F1   212 0130:00F3
   213 0130:00F6   214 0130:00F7   216 0130:00F9   217 0130:00FC
   218 0130:0100   219 0130:0102   220 0130:0104   221 0130:0105
   222 0130:0106   223 0130:0107   224 0130:0109   225 0130:010A
   228 0130:010B   229 0130:010D   230 0130:010E   231 0130:010F
   232 0130:0110   233 0130:0112   234 0130:0113   235 0130:0114
   236 0130:0116   237 0130:0117   238 0130:0118   239 0130:0119
   240 0130:011B   241 0130:011C   244 0130:011D   247 0130:0121
   248 0130:012B   250 0130:0136   251 0130:0139   252 0130:013B
   253 0130:013E   254 0130:0141   255 0130:0144   256 0130:0146
   259 0130:014A   260 0130:014D   261 0130:014F   262 0130:0152
   263 0130:0155   265 0130:0156   266 0130:0159   267 0130:015B
   268 0130:015D   270 0130:015E   271 0130:0161   272 0130:0163
   274 0130:0165  2277 0130:0167  2278 0130:018D  2279 0130:019E
  2280 0130:01B0  2282 0130:01DB  2283 0130:01EB  2362 0130:01EF
  2363 0130:01FD  2364 0130:0205  2365 0130:020D  2366 0130:021A
  2367 0130:0220  2369 0130:0225  2370 0130:0236  2372 0130:0248
  2373 0130:024C  2375 0130:0265  2376 0130:027D  2377 0130:0281
  2378 0130:0289  2379 0130:028D  2381 0130:028F  2383 0130:02A8
  2384 0130:02AC  2385 0130:02C4  2386 0130:02C8  2387 0130:02D0
  2389 0130:02D4  2390 0130:02E0  2729 0130:02EF  2730 0130:0315
  2732 0130:031C  2734 0130:032F  2735 0130:0367  2737 0130:0378
  2739 0130:0385  2741 0130:038E  2742 0130:03A1  2744 0130:03B2
  2747 0130:03BF  2749 0130:03CB  2750 0130:03E6  2751 0130:03EF
  2752 0130:03FD  2753 0130:040C  2755 0130:0417  2756 0130:0435
  2757 0130:0473  2758 0130:04A1  2759 0130:04AC  2760 0130:04BC
  2762 0130:04C1  3028 0130:04C5  3029 0130:04CF  3030 0130:04D4
  3031 0130:04DA  3032 0130:04E0  3033 0130:04E6  3034 0130:04EB
  3035 0130:04F0  3036 0130:04F5  3037 0130:04FA  3038 0130:04FF
  3039 0130:0505  3040 0130:050A  3041 0130:0510  3042 0130:0516
  3043 0130:051C  3044 0130:0522  3045 0130:0527  3046 0130:052D
  3047 0130:0532  3048 0130:0537  3049 0130:053C  3050 0130:0541
  3051 0130:0546  3052 0130:054B  3053 0130:0550  3054 0130:0555
  3055 0130:055B  3057 0130:0582  3058 0130:058C  3060 0130:058F
  3067 0130:0598

Program entry point at 0000:0FA6
