
 Start  Stop   Length Name               Class

 00000H 00D8CH 00D8DH PROGRAM            CODE
 00D90H 00F8FH 00200H rolfazil           CODE
 00F90H 019F1H 00A62H vgaliza3           CODE
 01A00H 0201EH 0061FH Crt                CODE
 02020H 0389BH 0187CH System             CODE
 038A0H 047F5H 00F56H DATA               DATA
 04800H 147EFH 0FFF0H STACK              STACK
 147F0H 147F0H 00000H HEAP               HEAP

  Address         Publics by Value

 0000:05D9       slidewc3
 0000:07C1       initpats
 0000:087F       teller
 0000:0C10       @
 00D9:0000       slidewu
 00D9:01EE       @
 00F9:0000       vgamode
 00F9:0121       clear
 00F9:0167       hiyey
 00F9:01F9       syeyan
 00F9:0236       pset
 00F9:0251       yeyan
 00F9:03CD       syeyun
 00F9:0414       vertline
 00F9:048B       getplot
 00F9:04B3       yeyun
 00F9:0524       bar
 00F9:062F       aload
 00F9:06B7       uncompress
 00F9:07B7       loadchar
 00F9:0A4A       @
 01A0:000D       @
 01A0:0177       TextMode
 01A0:018C       Window
 01A0:01CC       ClrScr
 01A0:01E6       ClrEol
 01A0:01FA       InsLine
 01A0:01FF       DelLine
 01A0:021F       GotoXY
 01A0:024B       WhereX
 01A0:0257       WhereY
 01A0:0263       TextColor
 01A0:027D       TextBackground
 01A0:0295       LowVideo
 01A0:029B       HighVideo
 01A0:02A1       NormVideo
 01A0:02A8       Delay
 01A0:02D4       Sound
 01A0:0301       NoSound
 01A0:0308       KeyPressed
 01A0:031A       ReadKey
 01A0:033C       AssignCrt
 038A:0002       OvrCodeList
 038A:0004       OvrHeapSize
 038A:0006       OvrDebugPtr
 038A:000A       OvrHeapOrg
 038A:000C       OvrHeapPtr
 038A:000E       OvrHeapEnd
 038A:0010       OvrLoadList
 038A:0012       OvrDosHandle
 038A:0014       OvrEmsHandle
 038A:0016       HeapOrg
 038A:001A       HeapPtr
 038A:001E       HeapEnd
 038A:0022       FreeList
 038A:0026       FreeZero
 038A:002A       HeapError
 038A:002E       ExitProc
 038A:0032       ExitCode
 038A:0034       ErrorAddr
 038A:0038       PrefixSeg
 038A:003A       StackLimit
 038A:003C       InOutRes
 038A:003E       RandSeed
 038A:0042       SelectorInc
 038A:0044       Seg0040
 038A:0046       SegA000
 038A:0048       SegB000
 038A:004A       SegB800
 038A:004C       Test8086
 038A:004D       Test8087
 038A:004E       FileMode
 038A:0052       buncom
 038A:0056       bcom
 038A:005A       com
 038A:005E       uncom
 038A:0062       compresssize
 038A:0064       upos
 038A:0066       cpos
 038A:0068       showcompleted
 038A:0069       every
 038A:006B       bufer
 038A:006F       countcount
 038A:0071       indexcount
 038A:0073       z
 038A:0075       ccpos
 038A:0077       thesize
 038A:0079       uncomcount
 038A:007B       indexpat
 038A:02FB       countpat
 038A:057B       nopat
 038A:07FC       maxindexf
 038A:07FD       maxindexm
 038A:07FE       maxindex
 038A:07FF       countest
 038A:0800       indexest
 038A:0801       count
 038A:0802       maxcount
 038A:0803       ncount
 038A:0804       index
 038A:0806       lupos
 038A:0808       abc
 038A:0809       ndexs
 038A:080B       abcpos
 038A:080F       lastindex
 038A:0810       abcofs
 038A:0812       maxabc
 038A:0814       startabc
 038A:0816       headabc
 038A:0818       abcseg
 038A:081A       labas
 038A:081B       abcbuf
 038A:081D       uposindex
 038A:081F       startheadofs
 038A:0821       countlimit
 038A:0823       startofs
 038A:0825       startmaxofs
 038A:0828       wcountest
 038A:082A       wcount
 038A:082C       windexest
 038A:082E       windex
 038A:0830       wmaxindex
 038A:0832       wmaxindexf
 038A:0834       wmaxindexm
 038A:0836       wncount
 038A:0838       wmaxcount
 038A:083A       myword
 038A:083C       x
 038A:083E       y
 038A:0840       p
 038A:0844       ch
 038A:0846       buncom
 038A:084A       bcom
 038A:084E       com
 038A:0852       uncom
 038A:0856       compresssize
 038A:0858       upos
 038A:085A       cpos
 038A:085C       showcompleted
 038A:085E       every
 038A:0874       fillmethod
 038A:0875       cc
 038A:0876       a
 038A:0878       b
 038A:087A       c
 038A:087C       cp
 038A:087E       gseg
 038A:0880       gseg2
 038A:0882       pseg
 038A:0884       syaofs
 038A:0886       sydofs
 038A:0888       pseghi1
 038A:088A       pseghi2
 038A:088C       gseghi1
 038A:088E       gseghi2
 038A:0890       gofs
 038A:0892       gofs2
 038A:0894       pofs
 038A:0896       winx1
 038A:0898       winx2
 038A:089A       winy1
 038A:089C       winy2
 038A:089E       towinx1
 038A:08A0       towinx2
 038A:08A2       towiny1
 038A:08A4       towiny2
 038A:08A6       minx
 038A:08A8       miny
 038A:08AA       maxx
 038A:08AC       maxy
 038A:08AE       maxsize
 038A:08B0       myfilesize
 038A:08B2       gmis
 038A:08B3       yeymode
 038A:08B4       framemode
 038A:08B6       fc1
 038A:08B7       fc2
 038A:08B8       fc3
 038A:08BA       charw
 038A:08BC       charh
 038A:08BE       textx
 038A:08C0       texty
 038A:08C2       charinstalled
 038A:08C4       mychar
 038A:0CE0       CheckBreak
 038A:0CE1       CheckEOF
 038A:0CE2       DirectVideo
 038A:0CE3       CheckSnow
 038A:0CE4       LastMode
 038A:0CE6       TextAttr
 038A:0CE8       WindMin
 038A:0CEA       WindMax
 038A:0CF4       Input
 038A:0DF4       Output
 038A:0EF4       SaveInt00
 038A:0EF8       SaveInt02
 038A:0EFC       SaveInt1B
 038A:0F00       SaveInt21
 038A:0F04       SaveInt23
 038A:0F08       SaveInt24
 038A:0F0C       SaveInt34
 038A:0F10       SaveInt35
 038A:0F14       SaveInt36
 038A:0F18       SaveInt37
 038A:0F1C       SaveInt38
 038A:0F20       SaveInt39
 038A:0F24       SaveInt3A
 038A:0F28       SaveInt3B
 038A:0F2C       SaveInt3C
 038A:0F30       SaveInt3D
 038A:0F34       SaveInt3E
 038A:0F38       SaveInt3F
 038A:0F3C       SaveInt75

Line numbers for rolfazil(ROLFAZIL.PAS) segment rolfazil

   609 00D9:0000   610 00D9:000E   612 00D9:001A   613 00D9:0021
   614 00D9:0037   615 00D9:0041   616 00D9:0047   617 00D9:004D
   619 00D9:005F   621 00D9:0063   622 00D9:0073   623 00D9:0077
   625 00D9:007F   626 00D9:0088   627 00D9:0094   628 00D9:00B1
   629 00D9:00BB   630 00D9:00C5   632 00D9:00C7   633 00D9:00E1
   634 00D9:00E5   635 00D9:00F6   636 00D9:0100   638 00D9:0118
   639 00D9:0133   640 00D9:0137   642 00D9:013F   643 00D9:0150
   645 00D9:015B   646 00D9:0180   647 00D9:0185   648 00D9:0196
   649 00D9:01A0   651 00D9:01B8   652 00D9:01D3   653 00D9:01D7
   655 00D9:01DF   657 00D9:01EA   997 00D9:01EE   998 00D9:01F8
   999 00D9:01FE

Line numbers for vgaliza3(\ANGELO\NEWEST\ACE\VGALIZA3.PAS) segment vgaliza3

   120 00F9:0000   121 00F9:000A   122 00F9:0010   123 00F9:0013
   124 00F9:0017   125 00F9:001C   126 00F9:0021   127 00F9:0027
   128 00F9:002D   129 00F9:002F   130 00F9:0037   131 00F9:003C
   132 00F9:0041   133 00F9:0047   134 00F9:004D   135 00F9:004F
   136 00F9:0053   137 00F9:0058   138 00F9:005D   139 00F9:0063
   142 00F9:0069   143 00F9:006E   144 00F9:0073   145 00F9:0079
   148 00F9:007F   149 00F9:0083   150 00F9:0085   151 00F9:0089
   152 00F9:008B   153 00F9:008F   154 00F9:0091   155 00F9:0095
   156 00F9:0097   157 00F9:009B   158 00F9:009D   159 00F9:00A1
   160 00F9:00A5   161 00F9:00A8   163 00F9:00AA   164 00F9:00AC
   166 00F9:00AE   167 00F9:00B0   169 00F9:00B2   171 00F9:00B5
   172 00F9:00B7   173 00F9:00B9   175 00F9:00BB   176 00F9:00BC
   177 00F9:00BF   178 00F9:00C1   179 00F9:00C4   180 00F9:00C6
   181 00F9:00C7   182 00F9:00C8   183 00F9:00C9   184 00F9:00CB
   185 00F9:00CD   186 00F9:00CE   187 00F9:00D1   188 00F9:00D3
   189 00F9:00D4   190 00F9:00D5   191 00F9:00D6   192 00F9:00D8
   193 00F9:00D9   195 00F9:00DA   196 00F9:00DC   197 00F9:00DD
   198 00F9:00DE   199 00F9:00DF   200 00F9:00E1   203 00F9:00E2
   204 00F9:00E4   205 00F9:00E6   206 00F9:00E9   208 00F9:00EA
   209 00F9:00ED   210 00F9:00EF   211 00F9:00F1   212 00F9:00F3
   213 00F9:00F6   214 00F9:00F7   216 00F9:00F9   217 00F9:00FC
   218 00F9:0100   219 00F9:0102   220 00F9:0104   221 00F9:0105
   222 00F9:0106   223 00F9:0107   224 00F9:0109   225 00F9:010A
   228 00F9:010B   229 00F9:010D   230 00F9:010E   231 00F9:010F
   232 00F9:0110   233 00F9:0112   234 00F9:0113   235 00F9:0114
   236 00F9:0116   237 00F9:0117   238 00F9:0118   239 00F9:0119
   240 00F9:011B   241 00F9:011C   244 00F9:011D   247 00F9:0121
   248 00F9:012B   250 00F9:0136   251 00F9:0139   252 00F9:013B
   253 00F9:013E   254 00F9:0141   255 00F9:0144   256 00F9:0146
   259 00F9:014A   260 00F9:014D   261 00F9:014F   262 00F9:0152
   263 00F9:0155   265 00F9:0156   266 00F9:0159   267 00F9:015B
   268 00F9:015D   270 00F9:015E   271 00F9:0161   272 00F9:0163
   274 00F9:0165   277 00F9:0167   278 00F9:0171   280 00F9:017C
   281 00F9:017D   282 00F9:0180   283 00F9:0182   284 00F9:0185
   285 00F9:0188   286 00F9:018B   287 00F9:018D   288 00F9:018F
   289 00F9:0191   290 00F9:0193   291 00F9:0195   292 00F9:0197
   294 00F9:0199   295 00F9:019B   296 00F9:019E   297 00F9:01A0
   298 00F9:01A2   299 00F9:01A5   300 00F9:01A7   301 00F9:01A8
   302 00F9:01AB   303 00F9:01AC   304 00F9:01AF   305 00F9:01B2
   306 00F9:01B4   307 00F9:01B5   308 00F9:01B9   309 00F9:01BB
   310 00F9:01BD   311 00F9:01BF   312 00F9:01C1   313 00F9:01C2
   315 00F9:01C4   316 00F9:01C7   317 00F9:01C8   318 00F9:01CA
   319 00F9:01CB   320 00F9:01CD   321 00F9:01CE   322 00F9:01D0
   323 00F9:01D2   325 00F9:01D4   326 00F9:01D7   327 00F9:01D8
   328 00F9:01DD   329 00F9:01DF   330 00F9:01E1   332 00F9:01E3
   333 00F9:01E6   334 00F9:01E7   335 00F9:01E9   336 00F9:01EB
   337 00F9:01EC   338 00F9:01EE   339 00F9:01F1   340 00F9:01F2
   342 00F9:01F4   344 00F9:01F5   347 00F9:01F9   349 00F9:0203
   350 00F9:0206   351 00F9:0208   352 00F9:020B   353 00F9:020E
   354 00F9:0211   355 00F9:0215   356 00F9:0217   357 00F9:0219
   358 00F9:021B   359 00F9:021D   360 00F9:0221   361 00F9:0224
   362 00F9:0226   363 00F9:0228   364 00F9:022A   365 00F9:022D
   366 00F9:022E   367 00F9:0231   369 00F9:0232   407 00F9:0236
   409 00F9:0240   410 00F9:0242   411 00F9:0245   412 00F9:0248
   413 00F9:024B   415 00F9:024D   420 00F9:0251   421 00F9:025B
   423 00F9:0261   424 00F9:0288   426 00F9:0290   427 00F9:0293
   428 00F9:029A   429 00F9:02B3   430 00F9:02C9   431 00F9:02DF
   432 00F9:02E3   434 00F9:02EC   435 00F9:0309   436 00F9:030E
   437 00F9:031C   438 00F9:0321   440 00F9:0325   441 00F9:0327
   442 00F9:032B   444 00F9:0332   445 00F9:0336   446 00F9:033B
   447 00F9:0357   451 00F9:035C   453 00F9:036B   454 00F9:036F
   455 00F9:0372   456 00F9:0375   457 00F9:0378   458 00F9:037C
   459 00F9:037E   460 00F9:0381   461 00F9:0384   462 00F9:03A2
   463 00F9:03C9   473 00F9:03CD   475 00F9:03DB   476 00F9:03DE
   477 00F9:03E1   478 00F9:03E4   479 00F9:03E6   480 00F9:03E8
   481 00F9:03EA   482 00F9:03EE   483 00F9:03F1   484 00F9:03F4
   485 00F9:03F6   486 00F9:03F9   487 00F9:03FA   488 00F9:03FC
   489 00F9:03FF   490 00F9:0401   491 00F9:0402   492 00F9:0404
   494 00F9:0407   495 00F9:040D   660 00F9:0414   661 00F9:041E
   663 00F9:0424   665 00F9:042B   666 00F9:042F   667 00F9:0432
   668 00F9:0435   669 00F9:0438   670 00F9:043A   671 00F9:043D
   672 00F9:0440   674 00F9:0443   675 00F9:0444   676 00F9:0448
   679 00F9:044C   680 00F9:044F   681 00F9:0451   682 00F9:0454
   683 00F9:0457   684 00F9:045A   685 00F9:045E   686 00F9:0460
   687 00F9:0462   688 00F9:0464   689 00F9:0466   690 00F9:046A
   691 00F9:046D   692 00F9:046F   693 00F9:0471   694 00F9:0473
   695 00F9:0476   696 00F9:0477   699 00F9:047A   700 00F9:047D
   702 00F9:0481   703 00F9:0482   704 00F9:0485   707 00F9:0487
   733 00F9:048B   735 00F9:0499   736 00F9:049B   737 00F9:049E
   738 00F9:04A1   739 00F9:04A3   741 00F9:04A6   742 00F9:04AC
   747 00F9:04B3   748 00F9:04C1   750 00F9:04D0   751 00F9:04D3
   752 00F9:04D6   753 00F9:04D9   754 00F9:04DD   755 00F9:04DF
   756 00F9:04E3   757 00F9:04E5   758 00F9:04E6   759 00F9:04E9
   760 00F9:04ED   761 00F9:0517   762 00F9:051D  1627 00F9:0524
  1628 00F9:0532  1629 00F9:054C  1630 00F9:0566  1632 00F9:056D
  1633 00F9:057C  1634 00F9:058B  1635 00F9:059A  1637 00F9:05A9
  1639 00F9:05B0  1640 00F9:05BA  1641 00F9:05C3  1642 00F9:05CD
  1644 00F9:05D8  1645 00F9:05DC  1646 00F9:05DF  1647 00F9:05E2
  1648 00F9:05E5  1650 00F9:05E8  1651 00F9:05EA  1652 00F9:05EC
  1653 00F9:05EE  1654 00F9:05F1  1655 00F9:05F3  1657 00F9:05F5
  1659 00F9:05F7  1660 00F9:060D  1662 00F9:062B  2277 00F9:062F
  2278 00F9:0655  2279 00F9:0666  2280 00F9:0678  2282 00F9:06A3
  2283 00F9:06B3  2362 00F9:06B7  2363 00F9:06C5  2364 00F9:06CD
  2365 00F9:06D5  2366 00F9:06E2  2367 00F9:06E8  2369 00F9:06ED
  2370 00F9:06FE  2372 00F9:0710  2373 00F9:0714  2375 00F9:072D
  2376 00F9:0745  2377 00F9:0749  2378 00F9:0751  2379 00F9:0755
  2381 00F9:0757  2383 00F9:0770  2384 00F9:0774  2385 00F9:078C
  2386 00F9:0790  2387 00F9:0798  2389 00F9:079C  2390 00F9:07A8
  2729 00F9:07B7  2730 00F9:07DD  2732 00F9:07E4  2734 00F9:07F7
  2735 00F9:082F  2737 00F9:0840  2739 00F9:084D  2741 00F9:0856
  2742 00F9:0869  2744 00F9:087A  2747 00F9:0887  2749 00F9:0893
  2750 00F9:08AE  2751 00F9:08B7  2752 00F9:08C5  2753 00F9:08D4
  2755 00F9:08DF  2756 00F9:08FD  2757 00F9:093B  2758 00F9:0969
  2759 00F9:0974  2760 00F9:0984  2762 00F9:0989  3028 00F9:098D
  3029 00F9:0997  3030 00F9:099C  3031 00F9:09A2  3032 00F9:09A8
  3033 00F9:09AE  3034 00F9:09B3  3035 00F9:09B8  3036 00F9:09BD
  3037 00F9:09C2  3038 00F9:09C7  3039 00F9:09CD  3040 00F9:09D2
  3041 00F9:09D8  3042 00F9:09DE  3043 00F9:09E4  3044 00F9:09EA
  3045 00F9:09EF  3046 00F9:09F5  3047 00F9:09FA  3048 00F9:09FF
  3049 00F9:0A04  3050 00F9:0A09  3051 00F9:0A0E  3052 00F9:0A13
  3053 00F9:0A18  3054 00F9:0A1D  3055 00F9:0A23  3057 00F9:0A4A
  3058 00F9:0A54  3060 00F9:0A57  3067 00F9:0A60

Program entry point at 0000:0C10
